target datalayout = "e-m:e-p270:32:32-p271:32:32-p272:64:64-i64:64-i128:128-f80:128-n8:16:32:64-S128"
target triple = "x86_64-pc-linux-gnu"

%class.LIR_Opr = type { i64 }
%class.Register = type { i32 }
%class.XMMRegister = type { i32 }
%class.LIR_Assembler = type { ptr, ptr, ptr, ptr, ptr, ptr, i32, i32, %class.Label }
%class.Label = type <{ i32, [4 x i32], i32, ptr, i8, [7 x i8] }>
%class.Address = type { %class.Register, %class.Register, %class.XMMRegister, i32, i32, i8, [3 x i8], %class.RelocationHolder }
%class.RelocationHolder = type { [40 x i8] }

@_ZL9rscratch1 = internal constant %class.Register { i32 10 }, align 4
@g_assert_poison = external global ptr, align 8
@.str.8 = private unnamed_addr constant [44 x i8] c"src/hotspot/cpu/x86/c1_LIRAssembler_x86.cpp\00", align 1

; Function Attrs: mustprogress nounwind uwtable
define linkonce_odr hidden noundef ptr @_ZNK16RelocationHolder5relocEv(ptr noundef nonnull align 8 dereferenceable(40) %0) #1 comdat align 2 {
  %2 = alloca ptr, align 8
  store ptr %0, ptr %2, align 8
  %3 = load ptr, ptr %2, align 8
  %4 = getelementptr inbounds %class.RelocationHolder, ptr %3, i32 0, i32 0
  %5 = getelementptr inbounds [40 x i8], ptr %4, i64 0, i64 0
  ret ptr %5
}

; Function Attrs: mustprogress nounwind uwtable
define linkonce_odr hidden void @_ZN16RelocationHolderC2ERKS_(ptr noundef nonnull align 8 dereferenceable(40) %0, ptr noundef nonnull align 8 dereferenceable(40) %1) unnamed_addr #1 comdat align 2 {
  %3 = alloca ptr, align 8
  %4 = alloca ptr, align 8
  store ptr %0, ptr %3, align 8
  store ptr %1, ptr %4, align 8
  %5 = load ptr, ptr %3, align 8
  %6 = load ptr, ptr %4, align 8
  %7 = call noundef ptr @_ZNK16RelocationHolder5relocEv(ptr noundef nonnull align 8 dereferenceable(40) %6)
  %8 = load ptr, ptr %7, align 8
  %9 = getelementptr inbounds ptr, ptr %8, i64 2
  %10 = load ptr, ptr %9, align 8
  call void %10(ptr noundef nonnull align 8 dereferenceable(20) %7, ptr noundef nonnull align 8 dereferenceable(40) %5)
  ret void
}

; Function Attrs: mustprogress nounwind uwtable
define linkonce_odr hidden noundef i32 @_Z8in_bytes8ByteSize(i32 noundef %0) #1 comdat {
  %2 = alloca i32, align 4
  store i32 %0, ptr %2, align 4
  %3 = load i32, ptr %2, align 4
  ret i32 %3
}

; Function Attrs: mustprogress nounwind uwtable
define linkonce_odr hidden noundef i64 @_ZNK7LIR_Opr5valueEv(ptr noundef nonnull align 8 dereferenceable(8) %0) #1 comdat align 2 {
  %2 = alloca ptr, align 8
  store ptr %0, ptr %2, align 8
  %3 = load ptr, ptr %2, align 8
  %4 = getelementptr inbounds %class.LIR_Opr, ptr %3, i32 0, i32 0
  %5 = load i64, ptr %4, align 8
  ret i64 %5
}

; Function Attrs: mustprogress nounwind uwtable
define linkonce_odr hidden void @_ZN7AddressC2ERKS_(ptr noundef nonnull align 8 dereferenceable(64) %0, ptr noundef nonnull align 8 dereferenceable(64) %1) unnamed_addr #1 comdat align 2 {
  %3 = alloca ptr, align 8
  %4 = alloca ptr, align 8
  store ptr %0, ptr %3, align 8
  store ptr %1, ptr %4, align 8
  %5 = load ptr, ptr %3, align 8
  %6 = getelementptr inbounds %class.Address, ptr %5, i32 0, i32 0
  %7 = load ptr, ptr %4, align 8
  %8 = getelementptr inbounds %class.Address, ptr %7, i32 0, i32 0
  call void @llvm.memcpy.p0.p0.i64(ptr align 8 %6, ptr align 8 %8, i64 21, i1 false)
  %9 = getelementptr inbounds %class.Address, ptr %5, i32 0, i32 7
  %10 = load ptr, ptr %4, align 8
  %11 = getelementptr inbounds %class.Address, ptr %10, i32 0, i32 7
  call void @_ZN16RelocationHolderC2ERKS_(ptr noundef nonnull align 8 dereferenceable(40) %9, ptr noundef nonnull align 8 dereferenceable(40) %11)
  ret void
}

; Function Attrs: mustprogress nounwind uwtable
define linkonce_odr hidden noundef i32 @_Zpl8ByteSizeS_(i32 noundef %0, i32 noundef %1) #1 comdat {
  %3 = alloca i32, align 4
  %4 = alloca i32, align 4
  store i32 %0, ptr %3, align 4
  store i32 %1, ptr %4, align 4
  %5 = load i32, ptr %3, align 4
  %6 = call noundef i32 @_Z8in_bytes8ByteSize(i32 noundef %5)
  %7 = load i32, ptr %4, align 4
  %8 = call noundef i32 @_Z8in_bytes8ByteSize(i32 noundef %7)
  %9 = add nsw i32 %6, %8
  %10 = call noundef i32 @_Z11in_ByteSizei(i32 noundef %9)
  ret i32 %10
}

; Function Attrs: mustprogress nounwind uwtable
define linkonce_odr hidden noundef i32 @_Z11in_ByteSizei(i32 noundef %0) #1 comdat {
  %2 = alloca i32, align 4
  store i32 %0, ptr %2, align 4
  %3 = load i32, ptr %2, align 4
  ret i32 %3
}

; Function Attrs: mustprogress nounwind uwtable
define linkonce_odr hidden noundef i32 @_ZNK7LIR_Opr4dataEv(ptr noundef nonnull align 8 dereferenceable(8) %0) #1 comdat align 2 {
  %2 = alloca ptr, align 8
  store ptr %0, ptr %2, align 8
  %3 = load ptr, ptr %2, align 8
  %4 = call noundef i64 @_ZNK7LIR_Opr5valueEv(ptr noundef nonnull align 8 dereferenceable(8) %3)
  %5 = trunc i64 %4 to i32
  %6 = lshr i32 %5, 14
  ret i32 %6
}

; Function Attrs: mustprogress nounwind uwtable
define linkonce_odr hidden noundef zeroext i1 @_ZNK7LIR_Opr16check_value_maskEll(ptr noundef nonnull align 8 dereferenceable(8) %0, i64 noundef %1, i64 noundef %2) #1 comdat align 2 {
  %4 = alloca ptr, align 8
  %5 = alloca i64, align 8
  %6 = alloca i64, align 8
  store ptr %0, ptr %4, align 8
  store i64 %1, ptr %5, align 8
  store i64 %2, ptr %6, align 8
  %7 = load ptr, ptr %4, align 8
  %8 = call noundef i64 @_ZNK7LIR_Opr5valueEv(ptr noundef nonnull align 8 dereferenceable(8) %7)
  %9 = load i64, ptr %5, align 8
  %10 = and i64 %8, %9
  %11 = load i64, ptr %6, align 8
  %12 = icmp eq i64 %10, %11
  ret i1 %12
}

; Function Attrs: mustprogress nounwind uwtable
define linkonce_odr hidden void @_ZNK7LIR_Opr13validate_typeEv(ptr noundef nonnull align 8 dereferenceable(8) %0) #1 comdat align 2 {
  %2 = alloca ptr, align 8
  store ptr %0, ptr %2, align 8
  ret void
}

; Function Attrs: mustprogress nounwind uwtable
define linkonce_odr hidden noundef i32 @_ZNK7LIR_Opr15double_stack_ixEv(ptr noundef nonnull align 8 dereferenceable(8) %0) #1 comdat align 2 {
  %2 = alloca ptr, align 8
  store ptr %0, ptr %2, align 8
  %3 = load ptr, ptr %2, align 8
  %4 = call noundef i32 @_ZNK7LIR_Opr4dataEv(ptr noundef nonnull align 8 dereferenceable(8) %3)
  ret i32 %4
}

; Function Attrs: mustprogress nounwind uwtable
define linkonce_odr hidden noundef zeroext i1 @_ZNK7LIR_Opr15is_double_stackEv(ptr noundef nonnull align 8 dereferenceable(8) %0) #1 comdat align 2 {
  %2 = alloca ptr, align 8
  store ptr %0, ptr %2, align 8
  %3 = load ptr, ptr %2, align 8
  call void @_ZNK7LIR_Opr13validate_typeEv(ptr noundef nonnull align 8 dereferenceable(8) %3)
  %4 = call noundef zeroext i1 @_ZNK7LIR_Opr16check_value_maskEll(ptr noundef nonnull align 8 dereferenceable(8) %3, i64 noundef 391, i64 noundef 129)
  ret i1 %4
}

; Function Attrs: mustprogress nounwind uwtable
define linkonce_odr hidden void @_ZN14MacroAssembler6popptrE7Address(ptr noundef nonnull align 8 dereferenceable(40) %0, ptr noundef %1) #1 comdat align 2 {
  %3 = alloca ptr, align 8
  %4 = alloca ptr, align 8
  %5 = alloca %class.Address, align 8
  store ptr %0, ptr %3, align 8
  store ptr %1, ptr %4, align 8
  %6 = load ptr, ptr %3, align 8
  call void @_ZN7AddressC2ERKS_(ptr noundef nonnull align 8 dereferenceable(64) %5, ptr noundef nonnull align 8 dereferenceable(64) %1)
  call void @_ZN9Assembler4popqE7Address(ptr noundef nonnull align 8 dereferenceable(40) %6, ptr noundef %5)
  ret void
}

; Function Attrs: mustprogress nounwind uwtable
define linkonce_odr hidden void @_ZN14MacroAssembler7pushptrE7Address(ptr noundef nonnull align 8 dereferenceable(40) %0, ptr noundef %1) #1 comdat align 2 {
  %3 = alloca ptr, align 8
  %4 = alloca ptr, align 8
  %5 = alloca %class.Address, align 8
  store ptr %0, ptr %3, align 8
  store ptr %1, ptr %4, align 8
  %6 = load ptr, ptr %3, align 8
  call void @_ZN7AddressC2ERKS_(ptr noundef nonnull align 8 dereferenceable(64) %5, ptr noundef nonnull align 8 dereferenceable(64) %1)
  call void @_ZN9Assembler5pushqE7Address(ptr noundef nonnull align 8 dereferenceable(40) %6, ptr noundef %5)
  ret void
}

; Function Attrs: mustprogress nounwind uwtable
define linkonce_odr hidden void @_ZNK8FrameMap16address_for_slotEii(ptr dead_on_unwind noalias writable sret(%class.Address) align 8 %0, ptr noundef nonnull align 8 dereferenceable(40) %1, i32 noundef %2, i32 noundef %3) #1 comdat align 2 {
  %5 = alloca ptr, align 8
  %6 = alloca ptr, align 8
  %7 = alloca i32, align 4
  %8 = alloca i32, align 4
  store ptr %0, ptr %5, align 8
  store ptr %1, ptr %6, align 8
  store i32 %2, ptr %7, align 4
  store i32 %3, ptr %8, align 4
  %9 = load ptr, ptr %6, align 8
  %10 = load i32, ptr %7, align 4
  %11 = call noundef i32 @_ZNK8FrameMap18sp_offset_for_slotEi(ptr noundef nonnull align 8 dereferenceable(40) %9, i32 noundef %10)
  %12 = load i32, ptr %8, align 4
  %13 = call noundef i32 @_Z11in_ByteSizei(i32 noundef %12)
  %14 = call noundef i32 @_Zpl8ByteSizeS_(i32 noundef %11, i32 noundef %13)
  call void @_ZNK8FrameMap16make_new_addressE8ByteSize(ptr dead_on_unwind writable sret(%class.Address) align 8 %0, ptr noundef nonnull align 8 dereferenceable(40) %9, i32 noundef %14)
  ret void
}

; Function Attrs: mustprogress nounwind uwtable
define linkonce_odr hidden noundef i32 @_ZNK7LIR_Opr15single_stack_ixEv(ptr noundef nonnull align 8 dereferenceable(8) %0) #1 comdat align 2 {
  %2 = alloca ptr, align 8
  store ptr %0, ptr %2, align 8
  %3 = load ptr, ptr %2, align 8
  %4 = call noundef i32 @_ZNK7LIR_Opr4dataEv(ptr noundef nonnull align 8 dereferenceable(8) %3)
  ret i32 %4
}

; Function Attrs: mustprogress nounwind uwtable
define linkonce_odr hidden noundef ptr @_ZNK13LIR_Assembler9frame_mapEv(ptr noundef nonnull align 8 dereferenceable(96) %0) #1 comdat align 2 {
  %2 = alloca ptr, align 8
  store ptr %0, ptr %2, align 8
  %3 = load ptr, ptr %2, align 8
  %4 = getelementptr inbounds %class.LIR_Assembler, ptr %3, i32 0, i32 3
  %5 = load ptr, ptr %4, align 8
  ret ptr %5
}

; Function Attrs: mustprogress nounwind uwtable
define linkonce_odr hidden noundef zeroext i1 @_Z17is_reference_type9BasicTypeb(i8 noundef zeroext %0, i1 noundef zeroext %1) #1 comdat {
  %3 = alloca i8, align 1
  %4 = alloca i8, align 1
  store i8 %0, ptr %3, align 1
  %5 = zext i1 %1 to i8
  store i8 %5, ptr %4, align 1
  %6 = load i8, ptr %3, align 1
  %7 = zext i8 %6 to i32
  %8 = icmp eq i32 %7, 12
  br i1 %8, label %22, label %9

9:                                                ; preds = %2
  %10 = load i8, ptr %3, align 1
  %11 = zext i8 %10 to i32
  %12 = icmp eq i32 %11, 13
  br i1 %12, label %22, label %13

13:                                               ; preds = %9
  %14 = load i8, ptr %4, align 1
  %15 = trunc i8 %14 to i1
  br i1 %15, label %16, label %20

16:                                               ; preds = %13
  %17 = load i8, ptr %3, align 1
  %18 = zext i8 %17 to i32
  %19 = icmp eq i32 %18, 16
  br label %20

20:                                               ; preds = %16, %13
  %21 = phi i1 [ false, %13 ], [ %19, %16 ]
  br label %22

22:                                               ; preds = %20, %9, %2
  %23 = phi i1 [ true, %9 ], [ true, %2 ], [ %21, %20 ]
  ret i1 %23
}

; Function Attrs: mustprogress nounwind uwtable
define linkonce_odr hidden noundef zeroext i1 @_ZNK7LIR_Opr15is_single_stackEv(ptr noundef nonnull align 8 dereferenceable(8) %0) #1 comdat align 2 {
  %2 = alloca ptr, align 8
  store ptr %0, ptr %2, align 8
  %3 = load ptr, ptr %2, align 8
  call void @_ZNK7LIR_Opr13validate_typeEv(ptr noundef nonnull align 8 dereferenceable(8) %3)
  %4 = call noundef zeroext i1 @_ZNK7LIR_Opr16check_value_maskEll(ptr noundef nonnull align 8 dereferenceable(8) %3, i64 noundef 391, i64 noundef 1)
  ret i1 %4
}

; Function Attrs: mustprogress nounwind uwtable
define linkonce_odr hidden noundef ptr @_ZN7LIR_OprptEv(ptr noundef nonnull align 8 dereferenceable(8) %0) #1 comdat align 2 {
  %2 = alloca ptr, align 8
  store ptr %0, ptr %2, align 8
  %3 = load ptr, ptr %2, align 8
  ret ptr %3
}

; Function Attrs: mustprogress nounwind uwtable
define hidden void @_ZN13LIR_Assembler11stack2stackE7LIR_OprS0_9BasicType(ptr noundef nonnull align 8 dereferenceable(96) %0, i64 %1, i64 %2, i8 noundef zeroext %3) #1 align 2 {
  %5 = alloca %class.LIR_Opr, align 8
  %6 = alloca %class.LIR_Opr, align 8
  %7 = alloca ptr, align 8
  %8 = alloca i8, align 1
  %9 = alloca %class.Address, align 8
  %10 = alloca %class.Address, align 8
  %11 = alloca %class.Register, align 4
  %12 = alloca %class.Address, align 8
  %13 = alloca %class.Address, align 8
  %14 = alloca %class.Register, align 4
  %15 = alloca %class.Address, align 8
  %16 = alloca %class.Address, align 8
  %17 = getelementptr inbounds %class.LIR_Opr, ptr %5, i32 0, i32 0
  store i64 %1, ptr %17, align 8
  %18 = getelementptr inbounds %class.LIR_Opr, ptr %6, i32 0, i32 0
  store i64 %2, ptr %18, align 8
  store ptr %0, ptr %7, align 8
  store i8 %3, ptr %8, align 1
  %19 = load ptr, ptr %7, align 8
  %20 = call noundef ptr @_ZN7LIR_OprptEv(ptr noundef nonnull align 8 dereferenceable(8) %5)
  %21 = call noundef zeroext i1 @_ZNK7LIR_Opr15is_single_stackEv(ptr noundef nonnull align 8 dereferenceable(8) %20)
  br i1 %21, label %22, label %52

22:                                               ; preds = %4
  %23 = load i8, ptr %8, align 1
  %24 = call noundef zeroext i1 @_Z17is_reference_type9BasicTypeb(i8 noundef zeroext %23, i1 noundef zeroext false)
  br i1 %24, label %25, label %36

25:                                               ; preds = %22
  %26 = getelementptr inbounds %class.LIR_Assembler, ptr %19, i32 0, i32 0
  %27 = load ptr, ptr %26, align 8
  %28 = call noundef ptr @_ZNK13LIR_Assembler9frame_mapEv(ptr noundef nonnull align 8 dereferenceable(96) %19)
  %29 = call noundef ptr @_ZN7LIR_OprptEv(ptr noundef nonnull align 8 dereferenceable(8) %5)
  %30 = call noundef i32 @_ZNK7LIR_Opr15single_stack_ixEv(ptr noundef nonnull align 8 dereferenceable(8) %29)
  call void @_ZNK8FrameMap16address_for_slotEii(ptr dead_on_unwind writable sret(%class.Address) align 8 %9, ptr noundef nonnull align 8 dereferenceable(40) %28, i32 noundef %30, i32 noundef 0)
  call void @_ZN14MacroAssembler7pushptrE7Address(ptr noundef nonnull align 8 dereferenceable(40) %27, ptr noundef %9)
  %31 = getelementptr inbounds %class.LIR_Assembler, ptr %19, i32 0, i32 0
  %32 = load ptr, ptr %31, align 8
  %33 = call noundef ptr @_ZNK13LIR_Assembler9frame_mapEv(ptr noundef nonnull align 8 dereferenceable(96) %19)
  %34 = call noundef ptr @_ZN7LIR_OprptEv(ptr noundef nonnull align 8 dereferenceable(8) %6)
  %35 = call noundef i32 @_ZNK7LIR_Opr15single_stack_ixEv(ptr noundef nonnull align 8 dereferenceable(8) %34)
  call void @_ZNK8FrameMap16address_for_slotEii(ptr dead_on_unwind writable sret(%class.Address) align 8 %10, ptr noundef nonnull align 8 dereferenceable(40) %33, i32 noundef %35, i32 noundef 0)
  call void @_ZN14MacroAssembler6popptrE7Address(ptr noundef nonnull align 8 dereferenceable(40) %32, ptr noundef %10)
  br label %51

36:                                               ; preds = %22
  %37 = getelementptr inbounds %class.LIR_Assembler, ptr %19, i32 0, i32 0
  %38 = load ptr, ptr %37, align 8
  call void @llvm.memcpy.p0.p0.i64(ptr align 4 %11, ptr align 4 @_ZL9rscratch1, i64 4, i1 false)
  %39 = call noundef ptr @_ZNK13LIR_Assembler9frame_mapEv(ptr noundef nonnull align 8 dereferenceable(96) %19)
  %40 = call noundef ptr @_ZN7LIR_OprptEv(ptr noundef nonnull align 8 dereferenceable(8) %5)
  %41 = call noundef i32 @_ZNK7LIR_Opr15single_stack_ixEv(ptr noundef nonnull align 8 dereferenceable(8) %40)
  call void @_ZNK8FrameMap16address_for_slotEii(ptr dead_on_unwind writable sret(%class.Address) align 8 %12, ptr noundef nonnull align 8 dereferenceable(40) %39, i32 noundef %41, i32 noundef 0)
  %42 = getelementptr inbounds %class.Register, ptr %11, i32 0, i32 0
  %43 = load i32, ptr %42, align 4
  call void @_ZN9Assembler4movlE8Register7Address(ptr noundef nonnull align 8 dereferenceable(40) %38, i32 %43, ptr noundef %12)
  %44 = getelementptr inbounds %class.LIR_Assembler, ptr %19, i32 0, i32 0
  %45 = load ptr, ptr %44, align 8
  %46 = call noundef ptr @_ZNK13LIR_Assembler9frame_mapEv(ptr noundef nonnull align 8 dereferenceable(96) %19)
  %47 = call noundef ptr @_ZN7LIR_OprptEv(ptr noundef nonnull align 8 dereferenceable(8) %6)
  %48 = call noundef i32 @_ZNK7LIR_Opr15single_stack_ixEv(ptr noundef nonnull align 8 dereferenceable(8) %47)
  call void @_ZNK8FrameMap16address_for_slotEii(ptr dead_on_unwind writable sret(%class.Address) align 8 %13, ptr noundef nonnull align 8 dereferenceable(40) %46, i32 noundef %48, i32 noundef 0)
  call void @llvm.memcpy.p0.p0.i64(ptr align 4 %14, ptr align 4 @_ZL9rscratch1, i64 4, i1 false)
  %49 = getelementptr inbounds %class.Register, ptr %14, i32 0, i32 0
  %50 = load i32, ptr %49, align 4
  call void @_ZN9Assembler4movlE7Address8Register(ptr noundef nonnull align 8 dereferenceable(40) %45, ptr noundef %13, i32 %50)
  br label %51

51:                                               ; preds = %36, %25
  br label %71

52:                                               ; preds = %4
  %53 = call noundef ptr @_ZN7LIR_OprptEv(ptr noundef nonnull align 8 dereferenceable(8) %5)
  %54 = call noundef zeroext i1 @_ZNK7LIR_Opr15is_double_stackEv(ptr noundef nonnull align 8 dereferenceable(8) %53)
  br i1 %54, label %55, label %66

55:                                               ; preds = %52
  %56 = getelementptr inbounds %class.LIR_Assembler, ptr %19, i32 0, i32 0
  %57 = load ptr, ptr %56, align 8
  %58 = call noundef ptr @_ZNK13LIR_Assembler9frame_mapEv(ptr noundef nonnull align 8 dereferenceable(96) %19)
  %59 = call noundef ptr @_ZN7LIR_OprptEv(ptr noundef nonnull align 8 dereferenceable(8) %5)
  %60 = call noundef i32 @_ZNK7LIR_Opr15double_stack_ixEv(ptr noundef nonnull align 8 dereferenceable(8) %59)
  call void @_ZNK8FrameMap16address_for_slotEii(ptr dead_on_unwind writable sret(%class.Address) align 8 %15, ptr noundef nonnull align 8 dereferenceable(40) %58, i32 noundef %60, i32 noundef 0)
  call void @_ZN14MacroAssembler7pushptrE7Address(ptr noundef nonnull align 8 dereferenceable(40) %57, ptr noundef %15)
  %61 = getelementptr inbounds %class.LIR_Assembler, ptr %19, i32 0, i32 0
  %62 = load ptr, ptr %61, align 8
  %63 = call noundef ptr @_ZNK13LIR_Assembler9frame_mapEv(ptr noundef nonnull align 8 dereferenceable(96) %19)
  %64 = call noundef ptr @_ZN7LIR_OprptEv(ptr noundef nonnull align 8 dereferenceable(8) %6)
  %65 = call noundef i32 @_ZNK7LIR_Opr15double_stack_ixEv(ptr noundef nonnull align 8 dereferenceable(8) %64)
  call void @_ZNK8FrameMap16address_for_slotEii(ptr dead_on_unwind writable sret(%class.Address) align 8 %16, ptr noundef nonnull align 8 dereferenceable(40) %63, i32 noundef %65, i32 noundef 0)
  call void @_ZN14MacroAssembler6popptrE7Address(ptr noundef nonnull align 8 dereferenceable(40) %62, ptr noundef %16)
  br label %70

66:                                               ; preds = %52
  br label %67

67:                                               ; preds = %66
  %68 = load ptr, ptr @g_assert_poison, align 8
  store i8 88, ptr %68, align 1
  call void @_Z28report_should_not_reach_herePKci(ptr noundef @.str.8, i32 noundef 1151) #6
  unreachable

69:                                               ; No predecessors!
  br label %70

70:                                               ; preds = %69, %55
  br label %71

71:                                               ; preds = %70, %51
  ret void
}