; Function Attrs: mustprogress nounwind uwtable
define hidden void @_ZN13LIR_Assembler11stack2stackE7LIR_OprS0_9BasicType(ptr nocapture noundef nonnull readonly align 8 dereferenceable(96) %0, i64 %1, i64 %2, i8 noundef zeroext %3) local_unnamed_addr #0 align 2 {
  %5 = alloca %class.Address, align 8
  %6 = alloca %class.Address, align 8
  %7 = alloca %class.Address, align 8
  %8 = alloca %class.Address, align 8
  %9 = alloca %class.Address, align 8
  %10 = alloca %class.Address, align 8
  %11 = alloca %class.Address, align 8
  %12 = alloca %class.Address, align 8
  %13 = alloca %class.Address, align 8
  %14 = alloca %class.Address, align 8
  %15 = and i64 %1, 391
  switch i64 %15, label %67 [
    i64 1, label %16
    i64 129, label %45
  ]

16:                                               ; preds = %4
  %17 = and i8 %3, -2
  %or.cond.i = icmp eq i8 %17, 12
  %18 = load ptr, ptr %0, align 8
  %19 = getelementptr inbounds i8, ptr %0, i64 24
  %20 = load ptr, ptr %19, align 8
  %21 = trunc i64 %1 to i32
  %22 = lshr i32 %21, 14
  %23 = tail call noundef i32 @_ZNK8FrameMap18sp_offset_for_slotEi(ptr noundef nonnull align 8 dereferenceable(40) %20, i32 noundef %22) #15, !noalias !12
  br i1 %or.cond.i, label %24, label %_Z17is_reference_type9BasicTypeb.exit

24:                                               ; preds = %16
  call void @_ZNK8FrameMap16make_new_addressE8ByteSize(ptr dead_on_unwind nonnull writable sret(%class.Address) align 8 %9, ptr noundef nonnull align 8 dereferenceable(40) %20, i32 noundef %23) #15
  call void @llvm.lifetime.start.p0(i64 64, ptr nonnull %8)
  call void @llvm.memcpy.p0.p0.i64(ptr noundef nonnull align 8 dereferenceable(21) %8, ptr noundef nonnull align 8 dereferenceable(21) %9, i64 21, i1 false)
  %25 = getelementptr inbounds i8, ptr %8, i64 24
  %26 = getelementptr inbounds i8, ptr %9, i64 24
  %27 = load ptr, ptr %26, align 8
  %28 = getelementptr inbounds i8, ptr %27, i64 16
  %29 = load ptr, ptr %28, align 8
  call void %29(ptr noundef nonnull align 8 dereferenceable(20) %26, ptr noundef nonnull align 8 dereferenceable(40) %25) #15
  call void @_ZN9Assembler5pushqE7Address(ptr noundef nonnull align 8 dereferenceable(40) %18, ptr noundef nonnull %8) #15
  call void @llvm.lifetime.end.p0(i64 64, ptr nonnull %8)
  %30 = load ptr, ptr %0, align 8
  %31 = load ptr, ptr %19, align 8
  %32 = trunc i64 %2 to i32
  %33 = lshr i32 %32, 14
  %34 = call noundef i32 @_ZNK8FrameMap18sp_offset_for_slotEi(ptr noundef nonnull align 8 dereferenceable(40) %31, i32 noundef %33) #15, !noalias !78
  call void @_ZNK8FrameMap16make_new_addressE8ByteSize(ptr dead_on_unwind nonnull writable sret(%class.Address) align 8 %10, ptr noundef nonnull align 8 dereferenceable(40) %31, i32 noundef %34) #15
  call void @llvm.lifetime.start.p0(i64 64, ptr nonnull %7)
  call void @llvm.memcpy.p0.p0.i64(ptr noundef nonnull align 8 dereferenceable(21) %7, ptr noundef nonnull align 8 dereferenceable(21) %10, i64 21, i1 false)
  %35 = getelementptr inbounds i8, ptr %7, i64 24
  %36 = getelementptr inbounds i8, ptr %10, i64 24
  %37 = load ptr, ptr %36, align 8
  %38 = getelementptr inbounds i8, ptr %37, i64 16
  %39 = load ptr, ptr %38, align 8
  call void %39(ptr noundef nonnull align 8 dereferenceable(20) %36, ptr noundef nonnull align 8 dereferenceable(40) %35) #15
  call void @_ZN9Assembler4popqE7Address(ptr noundef nonnull align 8 dereferenceable(40) %30, ptr noundef nonnull %7) #15
  call void @llvm.lifetime.end.p0(i64 64, ptr nonnull %7)
  br label %69

_Z17is_reference_type9BasicTypeb.exit:            ; preds = %16
  call void @_ZNK8FrameMap16make_new_addressE8ByteSize(ptr dead_on_unwind nonnull writable sret(%class.Address) align 8 %11, ptr noundef nonnull align 8 dereferenceable(40) %20, i32 noundef %23) #15
  call void @_ZN9Assembler4movlE8Register7Address(ptr noundef nonnull align 8 dereferenceable(40) %18, i32 10, ptr noundef nonnull %11) #15
  %40 = load ptr, ptr %0, align 8
  %41 = load ptr, ptr %19, align 8
  %42 = trunc i64 %2 to i32
  %43 = lshr i32 %42, 14
  %44 = call noundef i32 @_ZNK8FrameMap18sp_offset_for_slotEi(ptr noundef nonnull align 8 dereferenceable(40) %41, i32 noundef %43) #15, !noalias !81
  call void @_ZNK8FrameMap16make_new_addressE8ByteSize(ptr dead_on_unwind nonnull writable sret(%class.Address) align 8 %12, ptr noundef nonnull align 8 dereferenceable(40) %41, i32 noundef %44) #15
  call void @_ZN9Assembler4movlE7Address8Register(ptr noundef nonnull align 8 dereferenceable(40) %40, ptr noundef nonnull %12, i32 10) #15
  br label %69

45:                                               ; preds = %4
  %46 = load ptr, ptr %0, align 8
  %47 = getelementptr inbounds i8, ptr %0, i64 24
  %48 = load ptr, ptr %47, align 8
  %49 = trunc i64 %1 to i32
  %50 = lshr i32 %49, 14
  %51 = tail call noundef i32 @_ZNK8FrameMap18sp_offset_for_slotEi(ptr noundef nonnull align 8 dereferenceable(40) %48, i32 noundef %50) #15, !noalias !84
  call void @_ZNK8FrameMap16make_new_addressE8ByteSize(ptr dead_on_unwind nonnull writable sret(%class.Address) align 8 %13, ptr noundef nonnull align 8 dereferenceable(40) %48, i32 noundef %51) #15
  call void @llvm.lifetime.start.p0(i64 64, ptr nonnull %6)
  call void @llvm.memcpy.p0.p0.i64(ptr noundef nonnull align 8 dereferenceable(21) %6, ptr noundef nonnull align 8 dereferenceable(21) %13, i64 21, i1 false)
  %52 = getelementptr inbounds i8, ptr %6, i64 24
  %53 = getelementptr inbounds i8, ptr %13, i64 24
  %54 = load ptr, ptr %53, align 8
  %55 = getelementptr inbounds i8, ptr %54, i64 16
  %56 = load ptr, ptr %55, align 8
  call void %56(ptr noundef nonnull align 8 dereferenceable(20) %53, ptr noundef nonnull align 8 dereferenceable(40) %52) #15
  call void @_ZN9Assembler5pushqE7Address(ptr noundef nonnull align 8 dereferenceable(40) %46, ptr noundef nonnull %6) #15
  call void @llvm.lifetime.end.p0(i64 64, ptr nonnull %6)
  %57 = load ptr, ptr %0, align 8
  %58 = load ptr, ptr %47, align 8
  %59 = trunc i64 %2 to i32
  %60 = lshr i32 %59, 14
  %61 = call noundef i32 @_ZNK8FrameMap18sp_offset_for_slotEi(ptr noundef nonnull align 8 dereferenceable(40) %58, i32 noundef %60) #15, !noalias !87
  call void @_ZNK8FrameMap16make_new_addressE8ByteSize(ptr dead_on_unwind nonnull writable sret(%class.Address) align 8 %14, ptr noundef nonnull align 8 dereferenceable(40) %58, i32 noundef %61) #15
  call void @llvm.lifetime.start.p0(i64 64, ptr nonnull %5)
  call void @llvm.memcpy.p0.p0.i64(ptr noundef nonnull align 8 dereferenceable(21) %5, ptr noundef nonnull align 8 dereferenceable(21) %14, i64 21, i1 false)
  %62 = getelementptr inbounds i8, ptr %5, i64 24
  %63 = getelementptr inbounds i8, ptr %14, i64 24
  %64 = load ptr, ptr %63, align 8
  %65 = getelementptr inbounds i8, ptr %64, i64 16
  %66 = load ptr, ptr %65, align 8
  call void %66(ptr noundef nonnull align 8 dereferenceable(20) %63, ptr noundef nonnull align 8 dereferenceable(40) %62) #15
  call void @_ZN9Assembler4popqE7Address(ptr noundef nonnull align 8 dereferenceable(40) %57, ptr noundef nonnull %5) #15
  call void @llvm.lifetime.end.p0(i64 64, ptr nonnull %5)
  br label %69

67:                                               ; preds = %4
  %68 = load ptr, ptr @g_assert_poison, align 8
  store i8 88, ptr %68, align 1
  tail call void @_Z28report_should_not_reach_herePKci(ptr noundef nonnull @.str.8, i32 noundef 1151) #16
  unreachable

69:                                               ; preds = %24, %_Z17is_reference_type9BasicTypeb.exit, %45
  ret void
}